target datalayout = "e-m:e-p270:32:32-p271:32:32-p272:64:64-i64:64-i128:128-f80:128-n8:16:32:64-S128"
target triple = "x86_64-pc-linux-gnu"

%union.pthread_mutex_t = type { %struct.__pthread_mutex_s }
%struct.__pthread_mutex_s = type { i32, i32, i32, i32, i32, i16, i16, %struct.__pthread_internal_list }
%struct.__pthread_internal_list = type { ptr, ptr }
%struct.node_features_ops = type { ptr, ptr, ptr, ptr, ptr, ptr, ptr, ptr, ptr, ptr, ptr, ptr, ptr, ptr, ptr, ptr, ptr }
%struct.timeval = type { i64, i64 }

@g_context_lock = internal global %union.pthread_mutex_t zeroinitializer, align 8
@.str.1 = private unnamed_addr constant [29 x i8] c"%s: pthread_mutex_lock(): %m\00", align 1
@g_context_cnt = internal global i32 -1, align 4
@ops = internal global ptr null, align 8
@.str.7 = private unnamed_addr constant [31 x i8] c"%s: pthread_mutex_unlock(): %m\00", align 1
@__func__.node_features_g_job_xlate = private unnamed_addr constant [26 x i8] c"node_features_g_job_xlate\00", align 1
@.str.8 = private unnamed_addr constant [4 x i8] c",%s\00", align 1

; Function Attrs: nounwind uwtable
define dso_local ptr @node_features_g_job_xlate(ptr noundef %0, ptr noundef %1, ptr noundef %2) #0 {
  %4 = alloca ptr, align 8
  %5 = alloca ptr, align 8
  %6 = alloca ptr, align 8
  %7 = alloca %struct.timeval, align 8
  %8 = alloca %struct.timeval, align 8
  %9 = alloca [20 x i8], align 16
  %10 = alloca i64, align 8
  %11 = alloca ptr, align 8
  %12 = alloca ptr, align 8
  %13 = alloca i32, align 4
  %14 = alloca i32, align 4
  %15 = alloca i32, align 4
  store ptr %0, ptr %4, align 8
  store ptr %1, ptr %5, align 8
  store ptr %2, ptr %6, align 8
  call void @llvm.lifetime.start.p0(i64 16, ptr %7) #7
  call void @llvm.lifetime.start.p0(i64 16, ptr %8) #7
  call void @llvm.lifetime.start.p0(i64 20, ptr %9) #7
  call void @llvm.memset.p0.i64(ptr align 16 %9, i8 0, i64 20, i1 false)
  call void @llvm.lifetime.start.p0(i64 8, ptr %10) #7
  call void @llvm.lifetime.start.p0(i64 8, ptr %11) #7
  store ptr null, ptr %11, align 8
  call void @llvm.lifetime.start.p0(i64 8, ptr %12) #7
  call void @llvm.lifetime.start.p0(i64 4, ptr %13) #7
  %16 = call i32 @gettimeofday(ptr noundef %7, ptr noundef null) #7
  br label %17

17:                                               ; preds = %3
  call void @llvm.lifetime.start.p0(i64 4, ptr %14) #7
  %18 = call i32 @pthread_mutex_lock(ptr noundef @g_context_lock) #7
  store i32 %18, ptr %14, align 4
  %19 = load i32, ptr %14, align 4
  %20 = icmp ne i32 %19, 0
  br i1 %20, label %21, label %24

21:                                               ; preds = %17
  %22 = load i32, ptr %14, align 4
  %23 = call ptr @__errno_location() #8
  store i32 %22, ptr %23, align 4
  call void (ptr, ...) @fatal_abort(ptr noundef @.str.1, ptr noundef @__func__.node_features_g_job_xlate) #9
  unreachable

24:                                               ; preds = %17
  call void @llvm.lifetime.end.p0(i64 4, ptr %14) #7
  br label %25

25:                                               ; preds = %24
  br label %26

26:                                               ; preds = %25
  store i32 0, ptr %13, align 4
  br label %27

27:                                               ; preds = %53, %26
  %28 = load i32, ptr %13, align 4
  %29 = load i32, ptr @g_context_cnt, align 4
  %30 = icmp slt i32 %28, %29
  br i1 %30, label %31, label %56

31:                                               ; preds = %27
  %32 = load ptr, ptr @ops, align 8
  %33 = load i32, ptr %13, align 4
  %34 = sext i32 %33 to i64
  %35 = getelementptr inbounds %struct.node_features_ops, ptr %32, i64 %34
  %36 = getelementptr inbounds nuw %struct.node_features_ops, ptr %35, i32 0, i32 4
  %37 = load ptr, ptr %36, align 8
  %38 = load ptr, ptr %4, align 8
  %39 = load ptr, ptr %5, align 8
  %40 = load ptr, ptr %6, align 8
  %41 = call ptr %37(ptr noundef %38, ptr noundef %39, ptr noundef %40)
  store ptr %41, ptr %12, align 8
  %42 = load ptr, ptr %12, align 8
  %43 = icmp ne ptr %42, null
  br i1 %43, label %44, label %52

44:                                               ; preds = %31
  %45 = load ptr, ptr %11, align 8
  %46 = icmp ne ptr %45, null
  br i1 %46, label %47, label %49

47:                                               ; preds = %44
  %48 = load ptr, ptr %12, align 8
  call void (ptr, ptr, ...) @_xstrfmtcat(ptr noundef %11, ptr noundef @.str.8, ptr noundef %48)
  call void @slurm_xfree(ptr noundef %12)
  br label %51

49:                                               ; preds = %44
  %50 = load ptr, ptr %12, align 8
  store ptr %50, ptr %11, align 8
  br label %51

51:                                               ; preds = %49, %47
  br label %52

52:                                               ; preds = %51, %31
  br label %53

53:                                               ; preds = %52
  %54 = load i32, ptr %13, align 4
  %55 = add nsw i32 %54, 1
  store i32 %55, ptr %13, align 4
  br label %27, !llvm.loop !18

56:                                               ; preds = %27
  br label %57

57:                                               ; preds = %56
  call void @llvm.lifetime.start.p0(i64 4, ptr %15) #7
  %58 = call i32 @pthread_mutex_unlock(ptr noundef @g_context_lock) #7
  store i32 %58, ptr %15, align 4
  %59 = load i32, ptr %15, align 4
  %60 = icmp ne i32 %59, 0
  br i1 %60, label %61, label %64

61:                                               ; preds = %57
  %62 = load i32, ptr %15, align 4
  %63 = call ptr @__errno_location() #8
  store i32 %62, ptr %63, align 4
  call void (ptr, ...) @fatal_abort(ptr noundef @.str.7, ptr noundef @__func__.node_features_g_job_xlate) #9
  unreachable

64:                                               ; preds = %57
  call void @llvm.lifetime.end.p0(i64 4, ptr %15) #7
  br label %65

65:                                               ; preds = %64
  br label %66

66:                                               ; preds = %65
  br label %67

67:                                               ; preds = %66
  %68 = call i32 @gettimeofday(ptr noundef %8, ptr noundef null) #7
  %69 = getelementptr inbounds [20 x i8], ptr %9, i64 0, i64 0
  call void @slurm_diff_tv_str(ptr noundef %7, ptr noundef %8, ptr noundef %69, i32 noundef 20, ptr noundef @__func__.node_features_g_job_xlate, i64 noundef 0, ptr noundef %10)
  br label %70

70:                                               ; preds = %67
  br label %71

71:                                               ; preds = %70
  %72 = load ptr, ptr %11, align 8
  call void @llvm.lifetime.end.p0(i64 4, ptr %13) #7
  call void @llvm.lifetime.end.p0(i64 8, ptr %12) #7
  call void @llvm.lifetime.end.p0(i64 8, ptr %11) #7
  call void @llvm.lifetime.end.p0(i64 8, ptr %10) #7
  call void @llvm.lifetime.end.p0(i64 20, ptr %9) #7
  call void @llvm.lifetime.end.p0(i64 16, ptr %8) #7
  call void @llvm.lifetime.end.p0(i64 16, ptr %7) #7
  ret ptr %72
}