; Function Attrs: nounwind uwtable
define dso_local ptr @node_features_g_job_xlate(ptr noundef %0, ptr noundef %1, ptr noundef %2) local_unnamed_addr #0 {
  %4 = alloca %struct.timeval, align 8
  %5 = alloca %struct.timeval, align 8
  %6 = alloca [20 x i8], align 16
  %7 = alloca i64, align 8
  %8 = alloca ptr, align 8
  %9 = alloca ptr, align 8
  call void @llvm.lifetime.start.p0(i64 16, ptr nonnull %4) #9
  call void @llvm.lifetime.start.p0(i64 16, ptr nonnull %5) #9
  call void @llvm.lifetime.start.p0(i64 20, ptr nonnull %6) #9
  call void @llvm.memset.p0.i64(ptr noundef nonnull align 16 dereferenceable(20) %6, i8 0, i64 20, i1 false)
  call void @llvm.lifetime.start.p0(i64 8, ptr nonnull %7) #9
  call void @llvm.lifetime.start.p0(i64 8, ptr nonnull %8) #9
  store ptr null, ptr %8, align 8
  call void @llvm.lifetime.start.p0(i64 8, ptr nonnull %9) #9
  %10 = call i32 @gettimeofday(ptr noundef nonnull %4, ptr noundef null) #9
  %11 = tail call i32 @pthread_mutex_lock(ptr noundef nonnull @g_context_lock) #9
  %.not = icmp eq i32 %11, 0
  br i1 %.not, label %.preheader, label %14

.preheader:                                       ; preds = %3
  %12 = load i32, ptr @g_context_cnt, align 4
  %13 = icmp sgt i32 %12, 0
  br i1 %13, label %.lr.ph, label %._crit_edge

14:                                               ; preds = %3
  %15 = tail call ptr @__errno_location() #10
  store i32 %11, ptr %15, align 4
  tail call void (ptr, ...) @fatal_abort(ptr noundef nonnull @.str.1, ptr noundef nonnull @__func__.node_features_g_job_xlate) #11
  unreachable

.lr.ph:                                           ; preds = %.preheader, %24
  %indvars.iv = phi i64 [ %indvars.iv.next, %24 ], [ 0, %.preheader ]
  %16 = load ptr, ptr @ops, align 8
  %17 = getelementptr inbounds nuw %struct.node_features_ops, ptr %16, i64 %indvars.iv, i32 4
  %18 = load ptr, ptr %17, align 8
  %19 = call ptr %18(ptr noundef %0, ptr noundef %1, ptr noundef %2) #9
  store ptr %19, ptr %9, align 8
  %.not13 = icmp eq ptr %19, null
  br i1 %.not13, label %24, label %20

20:                                               ; preds = %.lr.ph
  %21 = load ptr, ptr %8, align 8
  %.not14 = icmp eq ptr %21, null
  br i1 %.not14, label %23, label %22

22:                                               ; preds = %20
  call void (ptr, ptr, ...) @_xstrfmtcat(ptr noundef nonnull %8, ptr noundef nonnull @.str.8, ptr noundef nonnull %19) #9
  call void @slurm_xfree(ptr noundef nonnull %9) #9
  br label %24

23:                                               ; preds = %20
  store ptr %19, ptr %8, align 8
  br label %24

24:                                               ; preds = %.lr.ph, %23, %22
  %indvars.iv.next = add nuw nsw i64 %indvars.iv, 1
  %25 = load i32, ptr @g_context_cnt, align 4
  %26 = sext i32 %25 to i64
  %27 = icmp slt i64 %indvars.iv.next, %26
  br i1 %27, label %.lr.ph, label %._crit_edge, !llvm.loop !16

._crit_edge:                                      ; preds = %24, %.preheader
  %28 = call i32 @pthread_mutex_unlock(ptr noundef nonnull @g_context_lock) #9
  %.not12 = icmp eq i32 %28, 0
  br i1 %.not12, label %31, label %29

29:                                               ; preds = %._crit_edge
  %30 = tail call ptr @__errno_location() #10
  store i32 %28, ptr %30, align 4
  call void (ptr, ...) @fatal_abort(ptr noundef nonnull @.str.7, ptr noundef nonnull @__func__.node_features_g_job_xlate) #11
  unreachable

31:                                               ; preds = %._crit_edge
  %32 = call i32 @gettimeofday(ptr noundef nonnull %5, ptr noundef null) #9
  call void @slurm_diff_tv_str(ptr noundef nonnull %4, ptr noundef nonnull %5, ptr noundef nonnull %6, i32 noundef 20, ptr noundef nonnull @__func__.node_features_g_job_xlate, i64 noundef 0, ptr noundef nonnull %7) #9
  %33 = load ptr, ptr %8, align 8
  call void @llvm.lifetime.end.p0(i64 8, ptr nonnull %9) #9
  call void @llvm.lifetime.end.p0(i64 8, ptr nonnull %8) #9
  call void @llvm.lifetime.end.p0(i64 8, ptr nonnull %7) #9
  call void @llvm.lifetime.end.p0(i64 20, ptr nonnull %6) #9
  call void @llvm.lifetime.end.p0(i64 16, ptr nonnull %5) #9
  call void @llvm.lifetime.end.p0(i64 16, ptr nonnull %4) #9
  ret ptr %33
}